target datalayout = "e-m:e-p270:32:32-p271:32:32-p272:64:64-i64:64-i128:128-f80:128-n8:16:32:64-S128"
target triple = "x86_64-pc-linux-gnu"

%struct.RBasic = type { i64, i64 }
%struct.RString = type { %struct.RBasic, i64, %union.anon }
%union.anon = type { %struct.anon }
%struct.anon = type { ptr, %union.anon.0 }
%union.anon.0 = type { i64 }

; Function Attrs: nounwind sspstrong uwtable
define dso_local i64 @rb_check_id_cstr(ptr noundef %0, i64 noundef %1, ptr noundef %2) #0 {
  %4 = alloca ptr, align 8
  %5 = alloca i64, align 8
  %6 = alloca ptr, align 8
  %7 = alloca %struct.RString, align 8
  %8 = alloca i64, align 8
  store ptr %0, ptr %4, align 8, !tbaa !33
  store i64 %1, ptr %5, align 8, !tbaa !11
  store ptr %2, ptr %6, align 8, !tbaa !19
  call void @llvm.lifetime.start.p0(i64 40, ptr %7) #24
  call void @llvm.lifetime.start.p0(i64 8, ptr %8) #24
  %9 = load ptr, ptr %4, align 8, !tbaa !33
  %10 = load i64, ptr %5, align 8, !tbaa !11
  %11 = load ptr, ptr %6, align 8, !tbaa !19
  %12 = call i64 @rb_setup_fake_str(ptr noundef %7, ptr noundef %9, i64 noundef %10, ptr noundef %11)
  store i64 %12, ptr %8, align 8, !tbaa !11
  %13 = load i64, ptr %8, align 8, !tbaa !11
  %14 = call i32 @sym_check_asciionly(i64 noundef %13, i1 noundef zeroext true)
  %15 = load i64, ptr %8, align 8, !tbaa !11
  %16 = call i64 @lookup_str_id(i64 noundef %15)
  call void @llvm.lifetime.end.p0(i64 8, ptr %8) #24
  call void @llvm.lifetime.end.p0(i64 40, ptr %7) #24
  ret i64 %16
}