; Function Attrs: nounwind sspstrong uwtable
define dso_local i64 @rb_check_id_cstr(ptr noundef %0, i64 noundef %1, ptr noundef %2) local_unnamed_addr #0 {
  %4 = alloca %struct.RString, align 8
  call void @llvm.lifetime.start.p0(i64 40, ptr nonnull %4) #19
  %5 = call i64 @rb_setup_fake_str(ptr noundef nonnull %4, ptr noundef %0, i64 noundef %1, ptr noundef %2) #19
  call fastcc void @sym_check_asciionly(i64 noundef %5, i1 noundef zeroext true)
  %6 = call fastcc i64 @lookup_str_id(i64 noundef %5)
  call void @llvm.lifetime.end.p0(i64 40, ptr nonnull %4) #19
  ret i64 %6
}